; Function Attrs: mustprogress uwtable
define noundef nonnull align 8 dereferenceable(72) ptr @_ZN7Iex_3_412EenqueuedExcaSERS0_(ptr noundef nonnull returned align 8 dereferenceable(72) %0, ptr noundef nonnull align 8 dereferenceable(72) %1) local_unnamed_addr #2 align 2 {
  %.not.i.i = icmp eq ptr %0, %1
  br i1 %.not.i.i, label %_ZN7Iex_3_48ErrnoExcaSERS0_.exit, label %3

3:                                                ; preds = %2
  %4 = getelementptr inbounds nuw i8, ptr %1, i64 8
  %5 = getelementptr inbounds nuw i8, ptr %0, i64 8
  tail call void @_ZNSt7__cxx1112basic_stringIcSt11char_traitsIcESaIcEE9_M_assignERKS4_(ptr noundef nonnull align 8 dereferenceable(32) %5, ptr noundef nonnull align 8 dereferenceable(32) %4)
  %6 = getelementptr inbounds nuw i8, ptr %1, i64 40
  %7 = getelementptr inbounds nuw i8, ptr %0, i64 40
  tail call void @_ZNSt7__cxx1112basic_stringIcSt11char_traitsIcESaIcEE9_M_assignERKS4_(ptr noundef nonnull align 8 dereferenceable(32) %7, ptr noundef nonnull align 8 dereferenceable(32) %6)
  br label %_ZN7Iex_3_48ErrnoExcaSERS0_.exit

_ZN7Iex_3_48ErrnoExcaSERS0_.exit:                 ; preds = %2, %3
  ret ptr %0
}